; Function Attrs: mustprogress uwtable
define ptr @_ZNK17RichParameterList13findParameterERK7QString(ptr noundef nonnull readonly align 8 dereferenceable(24) %0, ptr noundef nonnull align 8 dereferenceable(8) %1) local_unnamed_addr #9 align 2 personality ptr @__gxx_personality_v0 {
  %.sroa.03.09 = load ptr, ptr %0, align 8
  %.not810 = icmp eq ptr %.sroa.03.09, %0
  br i1 %.not810, label %._crit_edge, label %.lr.ph

.lr.ph:                                           ; preds = %2, %8
  %.sroa.03.011 = phi ptr [ %.sroa.03.0, %8 ], [ %.sroa.03.09, %2 ]
  %3 = getelementptr inbounds i8, ptr %.sroa.03.011, i64 16
  %4 = load ptr, ptr %3, align 8
  %.not = icmp eq ptr %4, null
  br i1 %.not, label %8, label %5

5:                                                ; preds = %.lr.ph
  %6 = tail call noundef nonnull align 8 dereferenceable(8) ptr @_ZNK13RichParameter4nameEv(ptr noundef nonnull align 8 dereferenceable(56) %4)
  %7 = tail call noundef zeroext i1 @_ZeqRK7QStringS1_(ptr noundef nonnull align 8 dereferenceable(8) %6, ptr noundef nonnull align 8 dereferenceable(8) %1) #22
  br i1 %7, label %._crit_edge, label %8

8:                                                ; preds = %.lr.ph, %5
  %.sroa.03.0 = load ptr, ptr %.sroa.03.011, align 8
  %.not8 = icmp eq ptr %.sroa.03.0, %0
  br i1 %.not8, label %._crit_edge, label %.lr.ph, !llvm.loop !17

._crit_edge:                                      ; preds = %5, %8, %2
  %.sroa.07.0 = phi ptr [ %0, %2 ], [ %0, %8 ], [ %.sroa.03.011, %5 ]
  ret ptr %.sroa.07.0
}